target datalayout = "e-m:e-p270:32:32-p271:32:32-p272:64:64-i64:64-i128:128-f80:128-n8:16:32:64-S128"
target triple = "x86_64-pc-linux-gnu"

%"class.clang::GlobalDeclID" = type { %"class.clang::DeclIDBase" }
%"class.clang::DeclIDBase" = type { i64 }
%"class.clang::Decl.base" = type <{ ptr, %"class.llvm::PointerIntPair.337", %"class.llvm::PointerUnion", %"class.clang::SourceLocation", i32, i8 }>
%"class.llvm::PointerIntPair.337" = type { %"struct.llvm::detail::PunnedPointer.338" }
%"struct.llvm::detail::PunnedPointer.338" = type { [8 x i8] }
%"class.llvm::PointerUnion" = type { %"class.llvm::pointer_union_detail::PointerUnionMembers" }
%"class.llvm::pointer_union_detail::PointerUnionMembers" = type { %"class.llvm::pointer_union_detail::PointerUnionMembers.339" }
%"class.llvm::pointer_union_detail::PointerUnionMembers.339" = type { %"class.llvm::pointer_union_detail::PointerUnionMembers.340" }
%"class.llvm::pointer_union_detail::PointerUnionMembers.340" = type { %"class.llvm::PointerIntPair.341" }
%"class.llvm::PointerIntPair.341" = type { %"struct.llvm::detail::PunnedPointer.342" }
%"struct.llvm::detail::PunnedPointer.342" = type { [8 x i8] }
%"class.clang::SourceLocation" = type { i32 }
%"class.clang::QualType" = type { %"class.llvm::PointerIntPair" }
%"class.llvm::PointerIntPair" = type { %"struct.llvm::detail::PunnedPointer" }
%"struct.llvm::detail::PunnedPointer" = type { [8 x i8] }
%"class.clang::NamedDecl" = type { %"class.clang::Decl.base", %"class.clang::DeclarationName" }
%"class.clang::DeclarationName" = type { i64 }
%"class.clang::DeclContext" = type { ptr, %union.anon.347, ptr, ptr }
%union.anon.347 = type { %"class.clang::DeclContext::RecordDeclBitfields" }
%"class.clang::DeclContext::RecordDeclBitfields" = type { i64 }
%"class.llvm::PointerUnion.348" = type { %"class.llvm::pointer_union_detail::PointerUnionMembers.349" }
%"class.llvm::pointer_union_detail::PointerUnionMembers.349" = type { %"class.llvm::pointer_union_detail::PointerUnionMembers.350" }
%"class.llvm::pointer_union_detail::PointerUnionMembers.350" = type { %"class.llvm::pointer_union_detail::PointerUnionMembers.351" }
%"class.llvm::pointer_union_detail::PointerUnionMembers.351" = type { %"class.llvm::PointerIntPair.352" }
%"class.llvm::PointerIntPair.352" = type { %"struct.llvm::detail::PunnedPointer.342" }
%"class.clang::Decl" = type <{ ptr, %"class.llvm::PointerIntPair.337", %"class.llvm::PointerUnion", %"class.clang::SourceLocation", i32, i8, [7 x i8] }>
%"class.clang::ValueDecl" = type { %"class.clang::NamedDecl", %"class.clang::QualType" }
%"class.clang::DeclaratorDecl.base" = type <{ %"class.clang::ValueDecl", %"class.llvm::PointerUnion.401", %"class.clang::SourceLocation" }>
%"class.llvm::PointerUnion.401" = type { %"class.llvm::pointer_union_detail::PointerUnionMembers.402" }
%"class.llvm::pointer_union_detail::PointerUnionMembers.402" = type { %"class.llvm::pointer_union_detail::PointerUnionMembers.403" }
%"class.llvm::pointer_union_detail::PointerUnionMembers.403" = type { %"class.llvm::pointer_union_detail::PointerUnionMembers.404" }
%"class.llvm::pointer_union_detail::PointerUnionMembers.404" = type { %"class.llvm::PointerIntPair.405" }
%"class.llvm::PointerIntPair.405" = type { %"struct.llvm::detail::PunnedPointer.342" }
%"struct.clang::LazyOffsetPtr.408" = type { i64 }
%"class.clang::CXXMethodDecl" = type { %"class.clang::FunctionDecl" }
%"class.clang::FunctionDecl" = type { %"class.clang::DeclaratorDecl.base", %"class.clang::DeclContext", %"class.clang::Redeclarable.406", ptr, %union.anon.407, i32, %"class.clang::SourceLocation", %"class.clang::SourceLocation", [4 x i8], %"class.llvm::PointerUnion.409", %"class.clang::DeclarationNameLoc" }
%"class.clang::Redeclarable.406" = type { %"class.clang::Redeclarable<clang::FunctionDecl>::DeclLink", ptr }
%"class.clang::Redeclarable<clang::FunctionDecl>::DeclLink" = type { %"class.llvm::PointerUnion.348" }
%union.anon.407 = type { %"struct.clang::LazyOffsetPtr.408" }
%"class.llvm::PointerUnion.409" = type { %"class.llvm::pointer_union_detail::PointerUnionMembers.410" }
%"class.llvm::pointer_union_detail::PointerUnionMembers.410" = type { %"class.llvm::pointer_union_detail::PointerUnionMembers.411" }
%"class.llvm::pointer_union_detail::PointerUnionMembers.411" = type { %"class.llvm::pointer_union_detail::PointerUnionMembers.412" }
%"class.llvm::pointer_union_detail::PointerUnionMembers.412" = type { %"class.llvm::pointer_union_detail::PointerUnionMembers.413" }
%"class.llvm::pointer_union_detail::PointerUnionMembers.413" = type { %"class.llvm::pointer_union_detail::PointerUnionMembers.414" }
%"class.llvm::pointer_union_detail::PointerUnionMembers.414" = type { %"class.llvm::PointerIntPair.415" }
%"class.llvm::PointerIntPair.415" = type { %"struct.llvm::detail::PunnedPointer.342" }
%"class.clang::DeclarationNameLoc" = type { %union.anon.416 }
%union.anon.416 = type { %"struct.clang::DeclarationNameLoc::NT" }
%"struct.clang::DeclarationNameLoc::NT" = type { ptr }
%"struct.clang::DeclarationNameInfo" = type { %"class.clang::DeclarationName", %"class.clang::SourceLocation", %"class.clang::DeclarationNameLoc" }
%"class.clang::CXXDestructorDecl" = type { %"class.clang::CXXMethodDecl", ptr, ptr }

; Function Attrs: mustprogress nounwind uwtable
define linkonce_odr hidden noundef nonnull align 8 dereferenceable(8) ptr @_ZN4llvm6detail13PunnedPointerINS_12PointerUnionIJPKN5clang4TypeEPKNS3_8ExtQualsEEEEEaSEl(ptr noundef nonnull align 8 dereferenceable(8) %0, i64 noundef %1) #0 comdat align 2 {
  %3 = alloca ptr, align 8
  %4 = alloca i64, align 8
  store ptr %0, ptr %3, align 8
  store i64 %1, ptr %4, align 8
  %5 = load ptr, ptr %3, align 8
  %6 = getelementptr inbounds nuw %"struct.llvm::detail::PunnedPointer", ptr %5, i32 0, i32 0
  %7 = getelementptr inbounds [8 x i8], ptr %6, i64 0, i64 0
  call void @llvm.memcpy.p0.p0.i64(ptr align 8 %7, ptr align 8 %4, i64 8, i1 false)
  ret ptr %5
}

; Function Attrs: mustprogress nounwind uwtable
define linkonce_odr hidden void @_ZN5clang12FunctionDecl11setRangeEndENS_14SourceLocationE(ptr noundef nonnull align 8 dereferenceable(168) %0, i32 %1) #0 comdat align 2 {
  %3 = alloca %"class.clang::SourceLocation", align 4
  %4 = alloca ptr, align 8
  %5 = getelementptr inbounds nuw %"class.clang::SourceLocation", ptr %3, i32 0, i32 0
  store i32 %1, ptr %5, align 4
  store ptr %0, ptr %4, align 8
  %6 = load ptr, ptr %4, align 8
  %7 = getelementptr inbounds nuw %"class.clang::FunctionDecl", ptr %6, i32 0, i32 6
  call void @llvm.memcpy.p0.p0.i64(ptr align 4 %7, ptr align 4 %3, i64 4, i1 false)
  ret void
}

; Function Attrs: mustprogress nounwind uwtable
define linkonce_odr hidden noundef zeroext i1 @_ZNK5clang14SourceLocation7isValidEv(ptr noundef nonnull align 4 dereferenceable(4) %0) #0 comdat align 2 {
  %2 = alloca ptr, align 8
  store ptr %0, ptr %2, align 8
  %3 = load ptr, ptr %2, align 8
  %4 = getelementptr inbounds nuw %"class.clang::SourceLocation", ptr %3, i32 0, i32 0
  %5 = load i32, ptr %4, align 4
  %6 = icmp ne i32 %5, 0
  ret i1 %6
}

; Function Attrs: mustprogress nounwind uwtable
define linkonce_odr hidden void @_ZN4llvm6detail13PunnedPointerINS_12PointerUnionIJPKN5clang4TypeEPKNS3_8ExtQualsEEEEEC2El(ptr noundef nonnull align 8 dereferenceable(8) %0, i64 noundef %1) unnamed_addr #0 comdat align 2 {
  %3 = alloca ptr, align 8
  %4 = alloca i64, align 8
  store ptr %0, ptr %3, align 8
  store i64 %1, ptr %4, align 8
  %5 = load ptr, ptr %3, align 8
  %6 = load i64, ptr %4, align 8
  %7 = call noundef nonnull align 8 dereferenceable(8) ptr @_ZN4llvm6detail13PunnedPointerINS_12PointerUnionIJPKN5clang4TypeEPKNS3_8ExtQualsEEEEEaSEl(ptr noundef nonnull align 8 dereferenceable(8) %5, i64 noundef %6)
  ret void
}

; Function Attrs: mustprogress nounwind uwtable
define linkonce_odr hidden void @_ZN5clang15DeclarationName13setPtrAndKindEPKvNS0_14StoredNameKindE(ptr noundef nonnull align 8 dereferenceable(8) %0, ptr noundef %1, i32 noundef %2) #0 comdat align 2 {
  %4 = alloca ptr, align 8
  %5 = alloca ptr, align 8
  %6 = alloca i32, align 4
  %7 = alloca i64, align 8
  store ptr %0, ptr %4, align 8
  store ptr %1, ptr %5, align 8
  store i32 %2, ptr %6, align 4
  %8 = load ptr, ptr %4, align 8
  %9 = load ptr, ptr %5, align 8
  %10 = ptrtoint ptr %9 to i64
  store i64 %10, ptr %7, align 8
  %11 = load i64, ptr %7, align 8
  %12 = load i32, ptr %6, align 4
  %13 = zext i32 %12 to i64
  %14 = or i64 %11, %13
  %15 = getelementptr inbounds nuw %"class.clang::DeclarationName", ptr %8, i32 0, i32 0
  store i64 %14, ptr %15, align 8
  ret void
}

; Function Attrs: mustprogress nounwind uwtable
define linkonce_odr hidden void @_ZN5clang4Decl11setImplicitEb(ptr noundef nonnull align 8 dereferenceable(33) %0, i1 noundef zeroext %1) #0 comdat align 2 {
  %3 = alloca ptr, align 8
  %4 = alloca i8, align 1
  store ptr %0, ptr %3, align 8
  %5 = zext i1 %1 to i8
  store i8 %5, ptr %4, align 1
  %6 = load ptr, ptr %3, align 8
  %7 = load i8, ptr %4, align 1
  %8 = trunc i8 %7 to i1
  %9 = zext i1 %8 to i32
  %10 = getelementptr inbounds nuw %"class.clang::Decl", ptr %6, i32 0, i32 4
  %11 = load i32, ptr %10, align 4
  %12 = and i32 %9, 1
  %13 = shl i32 %12, 9
  %14 = and i32 %11, -513
  %15 = or i32 %14, %13
  store i32 %15, ptr %10, align 4
  ret void
}

; Function Attrs: mustprogress nounwind uwtable
define linkonce_odr hidden void @_ZN5clang13CXXMethodDeclC2ENS_4Decl4KindERNS_10ASTContextEPNS_13CXXRecordDeclENS_14SourceLocationERKNS_19DeclarationNameInfoENS_8QualTypeEPNS_14TypeSourceInfoENS_12StorageClassEbbNS_17ConstexprSpecKindES7_PNS_4ExprE(ptr noundef nonnull align 8 dereferenceable(168) %0, i32 noundef %1, ptr noundef nonnull align 8 dereferenceable(23096) %2, ptr noundef %3, i32 %4, ptr noundef nonnull align 8 dereferenceable(24) %5, i64 %6, ptr noundef %7, i32 noundef %8, i1 noundef zeroext %9, i1 noundef zeroext %10, i32 noundef %11, i32 %12, ptr noundef %13) unnamed_addr #0 comdat align 2 {
  %15 = alloca %"class.clang::SourceLocation", align 4
  %16 = alloca %"class.clang::QualType", align 8
  %17 = alloca %"class.clang::SourceLocation", align 4
  %18 = alloca ptr, align 8
  %19 = alloca i32, align 4
  %20 = alloca ptr, align 8
  %21 = alloca ptr, align 8
  %22 = alloca ptr, align 8
  %23 = alloca ptr, align 8
  %24 = alloca i32, align 4
  %25 = alloca i8, align 1
  %26 = alloca i8, align 1
  %27 = alloca i32, align 4
  %28 = alloca ptr, align 8
  %29 = alloca %"class.clang::SourceLocation", align 4
  %30 = alloca %"class.clang::QualType", align 8
  %31 = alloca %"class.clang::SourceLocation", align 4
  %32 = getelementptr inbounds nuw %"class.clang::SourceLocation", ptr %15, i32 0, i32 0
  store i32 %4, ptr %32, align 4
  %33 = getelementptr inbounds nuw %"class.clang::QualType", ptr %16, i32 0, i32 0
  %34 = getelementptr inbounds nuw %"class.llvm::PointerIntPair", ptr %33, i32 0, i32 0
  %35 = getelementptr inbounds nuw %"struct.llvm::detail::PunnedPointer", ptr %34, i32 0, i32 0
  store i64 %6, ptr %35, align 8
  %36 = getelementptr inbounds nuw %"class.clang::SourceLocation", ptr %17, i32 0, i32 0
  store i32 %12, ptr %36, align 4
  store ptr %0, ptr %18, align 8
  store i32 %1, ptr %19, align 4
  store ptr %2, ptr %20, align 8
  store ptr %3, ptr %21, align 8
  store ptr %5, ptr %22, align 8
  store ptr %7, ptr %23, align 8
  store i32 %8, ptr %24, align 4
  %37 = zext i1 %9 to i8
  store i8 %37, ptr %25, align 1
  %38 = zext i1 %10 to i8
  store i8 %38, ptr %26, align 1
  store i32 %11, ptr %27, align 4
  store ptr %13, ptr %28, align 8
  %39 = load ptr, ptr %18, align 8
  %40 = load i32, ptr %19, align 4
  %41 = load ptr, ptr %20, align 8
  %42 = load ptr, ptr %21, align 8
  %43 = icmp eq ptr %42, null
  br i1 %43, label %46, label %44

44:                                               ; preds = %14
  %45 = getelementptr inbounds i8, ptr %42, i64 64
  br label %46

46:                                               ; preds = %44, %14
  %47 = phi ptr [ %45, %44 ], [ null, %14 ]
  call void @llvm.memcpy.p0.p0.i64(ptr align 4 %29, ptr align 4 %15, i64 4, i1 false)
  %48 = load ptr, ptr %22, align 8
  call void @llvm.memcpy.p0.p0.i64(ptr align 8 %30, ptr align 8 %16, i64 8, i1 false)
  %49 = load ptr, ptr %23, align 8
  %50 = load i32, ptr %24, align 4
  %51 = load i8, ptr %25, align 1
  %52 = trunc i8 %51 to i1
  %53 = load i8, ptr %26, align 1
  %54 = trunc i8 %53 to i1
  %55 = load i32, ptr %27, align 4
  %56 = load ptr, ptr %28, align 8
  %57 = getelementptr inbounds nuw %"class.clang::SourceLocation", ptr %29, i32 0, i32 0
  %58 = load i32, ptr %57, align 4
  %59 = getelementptr inbounds nuw %"class.clang::QualType", ptr %30, i32 0, i32 0
  %60 = getelementptr inbounds nuw %"class.llvm::PointerIntPair", ptr %59, i32 0, i32 0
  %61 = getelementptr inbounds nuw %"struct.llvm::detail::PunnedPointer", ptr %60, i32 0, i32 0
  %62 = load i64, ptr %61, align 8
  call void @_ZN5clang12FunctionDeclC2ENS_4Decl4KindERNS_10ASTContextEPNS_11DeclContextENS_14SourceLocationERKNS_19DeclarationNameInfoENS_8QualTypeEPNS_14TypeSourceInfoENS_12StorageClassEbbNS_17ConstexprSpecKindEPNS_4ExprE(ptr noundef nonnull align 8 dereferenceable(168) %39, i32 noundef %40, ptr noundef nonnull align 8 dereferenceable(23096) %41, ptr noundef %47, i32 %58, ptr noundef nonnull align 8 dereferenceable(24) %48, i64 %62, ptr noundef %49, i32 noundef %50, i1 noundef zeroext %52, i1 noundef zeroext %54, i32 noundef %55, ptr noundef %56)
  store ptr getelementptr inbounds inrange(-16, 104) ({ [15 x ptr] }, ptr @_ZTVN5clang13CXXMethodDeclE, i32 0, i32 0, i32 2), ptr %39, align 8
  %63 = call noundef zeroext i1 @_ZNK5clang14SourceLocation7isValidEv(ptr noundef nonnull align 4 dereferenceable(4) %17)
  br i1 %63, label %64, label %67

64:                                               ; preds = %46
  call void @llvm.memcpy.p0.p0.i64(ptr align 4 %31, ptr align 4 %17, i64 4, i1 false)
  %65 = getelementptr inbounds nuw %"class.clang::SourceLocation", ptr %31, i32 0, i32 0
  %66 = load i32, ptr %65, align 4
  call void @_ZN5clang12FunctionDecl11setRangeEndENS_14SourceLocationE(ptr noundef nonnull align 8 dereferenceable(168) %39, i32 %66)
  br label %67

67:                                               ; preds = %64, %46
  ret void
}

; Function Attrs: mustprogress nounwind uwtable
define linkonce_odr hidden void @_ZN4llvm14PointerIntPairINS_12PointerUnionIJPKN5clang4TypeEPKNS2_8ExtQualsEEEELj3EjNS_21PointerLikeTypeTraitsIS9_EENS_18PointerIntPairInfoIS9_Lj3ESB_EEEC2Ev(ptr noundef nonnull align 8 dereferenceable(8) %0) unnamed_addr #0 comdat align 2 {
  %2 = alloca ptr, align 8
  store ptr %0, ptr %2, align 8
  %3 = load ptr, ptr %2, align 8
  %4 = getelementptr inbounds nuw %"class.llvm::PointerIntPair", ptr %3, i32 0, i32 0
  call void @_ZN4llvm6detail13PunnedPointerINS_12PointerUnionIJPKN5clang4TypeEPKNS3_8ExtQualsEEEEEC2El(ptr noundef nonnull align 8 dereferenceable(8) %4, i64 noundef 0)
  ret void
}

; Function Attrs: mustprogress nounwind uwtable
define linkonce_odr hidden void @_ZN5clang18DeclarationNameLocC2Ev(ptr noundef nonnull align 8 dereferenceable(8) %0) unnamed_addr #0 comdat align 2 {
  %2 = alloca ptr, align 8
  store ptr %0, ptr %2, align 8
  %3 = load ptr, ptr %2, align 8
  call void @llvm.memset.p0.i64(ptr align 1 %3, i8 0, i64 8, i1 false)
  ret void
}

; Function Attrs: mustprogress nounwind uwtable
define linkonce_odr hidden void @_ZN5clang15DeclarationNameC2Ev(ptr noundef nonnull align 8 dereferenceable(8) %0) unnamed_addr #0 comdat align 2 {
  %2 = alloca ptr, align 8
  store ptr %0, ptr %2, align 8
  %3 = load ptr, ptr %2, align 8
  %4 = getelementptr inbounds nuw %"class.clang::DeclarationName", ptr %3, i32 0, i32 0
  store i64 0, ptr %4, align 8
  call void @_ZN5clang15DeclarationName13setPtrAndKindEPKvNS0_14StoredNameKindE(ptr noundef nonnull align 8 dereferenceable(8) %3, ptr noundef null, i32 noundef 0)
  ret void
}

; Function Attrs: mustprogress nounwind uwtable
define linkonce_odr hidden void @_ZN5clang17CXXDestructorDeclC2ERNS_10ASTContextEPNS_13CXXRecordDeclENS_14SourceLocationERKNS_19DeclarationNameInfoENS_8QualTypeEPNS_14TypeSourceInfoEbbbNS_17ConstexprSpecKindEPNS_4ExprE(ptr noundef nonnull align 8 dereferenceable(184) %0, ptr noundef nonnull align 8 dereferenceable(23096) %1, ptr noundef %2, i32 %3, ptr noundef nonnull align 8 dereferenceable(24) %4, i64 %5, ptr noundef %6, i1 noundef zeroext %7, i1 noundef zeroext %8, i1 noundef zeroext %9, i32 noundef %10, ptr noundef %11) unnamed_addr #0 comdat align 2 {
  %13 = alloca %"class.clang::SourceLocation", align 4
  %14 = alloca %"class.clang::QualType", align 8
  %15 = alloca ptr, align 8
  %16 = alloca ptr, align 8
  %17 = alloca ptr, align 8
  %18 = alloca ptr, align 8
  %19 = alloca ptr, align 8
  %20 = alloca i8, align 1
  %21 = alloca i8, align 1
  %22 = alloca i8, align 1
  %23 = alloca i32, align 4
  %24 = alloca ptr, align 8
  %25 = alloca %"class.clang::SourceLocation", align 4
  %26 = alloca %"class.clang::QualType", align 8
  %27 = alloca %"class.clang::SourceLocation", align 4
  %28 = getelementptr inbounds nuw %"class.clang::SourceLocation", ptr %13, i32 0, i32 0
  store i32 %3, ptr %28, align 4
  %29 = getelementptr inbounds nuw %"class.clang::QualType", ptr %14, i32 0, i32 0
  %30 = getelementptr inbounds nuw %"class.llvm::PointerIntPair", ptr %29, i32 0, i32 0
  %31 = getelementptr inbounds nuw %"struct.llvm::detail::PunnedPointer", ptr %30, i32 0, i32 0
  store i64 %5, ptr %31, align 8
  store ptr %0, ptr %15, align 8
  store ptr %1, ptr %16, align 8
  store ptr %2, ptr %17, align 8
  store ptr %4, ptr %18, align 8
  store ptr %6, ptr %19, align 8
  %32 = zext i1 %7 to i8
  store i8 %32, ptr %20, align 1
  %33 = zext i1 %8 to i8
  store i8 %33, ptr %21, align 1
  %34 = zext i1 %9 to i8
  store i8 %34, ptr %22, align 1
  store i32 %10, ptr %23, align 4
  store ptr %11, ptr %24, align 8
  %35 = load ptr, ptr %15, align 8
  %36 = load ptr, ptr %16, align 8
  %37 = load ptr, ptr %17, align 8
  call void @llvm.memcpy.p0.p0.i64(ptr align 4 %25, ptr align 4 %13, i64 4, i1 false)
  %38 = load ptr, ptr %18, align 8
  call void @llvm.memcpy.p0.p0.i64(ptr align 8 %26, ptr align 8 %14, i64 8, i1 false)
  %39 = load ptr, ptr %19, align 8
  %40 = load i8, ptr %20, align 1
  %41 = trunc i8 %40 to i1
  %42 = load i8, ptr %21, align 1
  %43 = trunc i8 %42 to i1
  %44 = load i32, ptr %23, align 4
  call void @llvm.memset.p0.i64(ptr align 4 %27, i8 0, i64 4, i1 false)
  call void @_ZN5clang14SourceLocationC2Ev(ptr noundef nonnull align 4 dereferenceable(4) %27) #11
  %45 = load ptr, ptr %24, align 8
  %46 = getelementptr inbounds nuw %"class.clang::SourceLocation", ptr %25, i32 0, i32 0
  %47 = load i32, ptr %46, align 4
  %48 = getelementptr inbounds nuw %"class.clang::QualType", ptr %26, i32 0, i32 0
  %49 = getelementptr inbounds nuw %"class.llvm::PointerIntPair", ptr %48, i32 0, i32 0
  %50 = getelementptr inbounds nuw %"struct.llvm::detail::PunnedPointer", ptr %49, i32 0, i32 0
  %51 = load i64, ptr %50, align 8
  %52 = getelementptr inbounds nuw %"class.clang::SourceLocation", ptr %27, i32 0, i32 0
  %53 = load i32, ptr %52, align 4
  call void @_ZN5clang13CXXMethodDeclC2ENS_4Decl4KindERNS_10ASTContextEPNS_13CXXRecordDeclENS_14SourceLocationERKNS_19DeclarationNameInfoENS_8QualTypeEPNS_14TypeSourceInfoENS_12StorageClassEbbNS_17ConstexprSpecKindES7_PNS_4ExprE(ptr noundef nonnull align 8 dereferenceable(168) %35, i32 noundef 33, ptr noundef nonnull align 8 dereferenceable(23096) %36, ptr noundef %37, i32 %47, ptr noundef nonnull align 8 dereferenceable(24) %38, i64 %51, ptr noundef %39, i32 noundef 0, i1 noundef zeroext %41, i1 noundef zeroext %43, i32 noundef %44, i32 %53, ptr noundef %45)
  store ptr getelementptr inbounds inrange(-16, 104) ({ [15 x ptr] }, ptr @_ZTVN5clang17CXXDestructorDeclE, i32 0, i32 0, i32 2), ptr %35, align 8
  %54 = getelementptr inbounds nuw %"class.clang::CXXDestructorDecl", ptr %35, i32 0, i32 1
  store ptr null, ptr %54, align 8
  %55 = getelementptr inbounds nuw %"class.clang::CXXDestructorDecl", ptr %35, i32 0, i32 2
  store ptr null, ptr %55, align 8
  %56 = load i8, ptr %22, align 1
  %57 = trunc i8 %56 to i1
  call void @_ZN5clang4Decl11setImplicitEb(ptr noundef nonnull align 8 dereferenceable(33) %35, i1 noundef zeroext %57)
  ret void
}

; Function Attrs: mustprogress nounwind uwtable
define linkonce_odr hidden void @_ZN5clang8QualTypeC2Ev(ptr noundef nonnull align 8 dereferenceable(8) %0) unnamed_addr #0 comdat align 2 {
  %2 = alloca ptr, align 8
  store ptr %0, ptr %2, align 8
  %3 = load ptr, ptr %2, align 8
  %4 = getelementptr inbounds nuw %"class.clang::QualType", ptr %3, i32 0, i32 0
  call void @_ZN4llvm14PointerIntPairINS_12PointerUnionIJPKN5clang4TypeEPKNS2_8ExtQualsEEEELj3EjNS_21PointerLikeTypeTraitsIS9_EENS_18PointerIntPairInfoIS9_Lj3ESB_EEEC2Ev(ptr noundef nonnull align 8 dereferenceable(8) %4)
  ret void
}

; Function Attrs: mustprogress nounwind uwtable
define linkonce_odr hidden void @_ZN5clang19DeclarationNameInfoC2Ev(ptr noundef nonnull align 8 dereferenceable(24) %0) unnamed_addr #0 comdat align 2 {
  %2 = alloca ptr, align 8
  store ptr %0, ptr %2, align 8
  %3 = load ptr, ptr %2, align 8
  %4 = getelementptr inbounds nuw %"struct.clang::DeclarationNameInfo", ptr %3, i32 0, i32 0
  call void @_ZN5clang15DeclarationNameC2Ev(ptr noundef nonnull align 8 dereferenceable(8) %4)
  %5 = getelementptr inbounds nuw %"struct.clang::DeclarationNameInfo", ptr %3, i32 0, i32 1
  call void @_ZN5clang14SourceLocationC2Ev(ptr noundef nonnull align 4 dereferenceable(4) %5) #11
  %6 = getelementptr inbounds nuw %"struct.clang::DeclarationNameInfo", ptr %3, i32 0, i32 2
  call void @_ZN5clang18DeclarationNameLocC2Ev(ptr noundef nonnull align 8 dereferenceable(8) %6)
  ret void
}

; Function Attrs: mustprogress nounwind uwtable
define linkonce_odr hidden void @_ZN5clang14SourceLocationC2Ev(ptr noundef nonnull align 4 dereferenceable(4) %0) unnamed_addr #0 comdat align 2 {
  %2 = alloca ptr, align 8
  store ptr %0, ptr %2, align 8
  %3 = load ptr, ptr %2, align 8
  %4 = getelementptr inbounds nuw %"class.clang::SourceLocation", ptr %3, i32 0, i32 0
  store i32 0, ptr %4, align 4
  ret void
}

; Function Attrs: mustprogress nounwind uwtable
define dso_local noundef ptr @_ZN5clang17CXXDestructorDecl18CreateDeserializedERNS_10ASTContextENS_12GlobalDeclIDE(ptr noundef nonnull align 8 dereferenceable(23096) %0, i64 %1) #0 align 2 {
  %3 = alloca %"class.clang::GlobalDeclID", align 8
  %4 = alloca ptr, align 8
  %5 = alloca %"class.clang::GlobalDeclID", align 8
  %6 = alloca %"class.clang::SourceLocation", align 4
  %7 = alloca %"struct.clang::DeclarationNameInfo", align 8
  %8 = alloca %"class.clang::QualType", align 8
  %9 = getelementptr inbounds nuw %"class.clang::GlobalDeclID", ptr %3, i32 0, i32 0
  %10 = getelementptr inbounds nuw %"class.clang::DeclIDBase", ptr %9, i32 0, i32 0
  store i64 %1, ptr %10, align 8
  store ptr %0, ptr %4, align 8
  %11 = load ptr, ptr %4, align 8
  call void @llvm.memcpy.p0.p0.i64(ptr align 8 %5, ptr align 8 %3, i64 8, i1 false)
  %12 = getelementptr inbounds nuw %"class.clang::GlobalDeclID", ptr %5, i32 0, i32 0
  %13 = getelementptr inbounds nuw %"class.clang::DeclIDBase", ptr %12, i32 0, i32 0
  %14 = load i64, ptr %13, align 8
  %15 = call noundef ptr @_ZN5clang4DeclnwEmRKNS_10ASTContextENS_12GlobalDeclIDEm(i64 noundef 184, ptr noundef nonnull align 8 dereferenceable(23096) %11, i64 %14, i64 noundef 0)
  %16 = load ptr, ptr %4, align 8
  call void @llvm.memset.p0.i64(ptr align 4 %6, i8 0, i64 4, i1 false)
  call void @_ZN5clang14SourceLocationC2Ev(ptr noundef nonnull align 4 dereferenceable(4) %6) #11
  call void @llvm.memset.p0.i64(ptr align 8 %7, i8 0, i64 24, i1 false)
  call void @_ZN5clang19DeclarationNameInfoC2Ev(ptr noundef nonnull align 8 dereferenceable(24) %7)
  call void @llvm.memset.p0.i64(ptr align 8 %8, i8 0, i64 8, i1 false)
  call void @_ZN5clang8QualTypeC2Ev(ptr noundef nonnull align 8 dereferenceable(8) %8)
  %17 = getelementptr inbounds nuw %"class.clang::SourceLocation", ptr %6, i32 0, i32 0
  %18 = load i32, ptr %17, align 4
  %19 = getelementptr inbounds nuw %"class.clang::QualType", ptr %8, i32 0, i32 0
  %20 = getelementptr inbounds nuw %"class.llvm::PointerIntPair", ptr %19, i32 0, i32 0
  %21 = getelementptr inbounds nuw %"struct.llvm::detail::PunnedPointer", ptr %20, i32 0, i32 0
  %22 = load i64, ptr %21, align 8
  call void @_ZN5clang17CXXDestructorDeclC2ERNS_10ASTContextEPNS_13CXXRecordDeclENS_14SourceLocationERKNS_19DeclarationNameInfoENS_8QualTypeEPNS_14TypeSourceInfoEbbbNS_17ConstexprSpecKindEPNS_4ExprE(ptr noundef nonnull align 8 dereferenceable(184) %15, ptr noundef nonnull align 8 dereferenceable(23096) %16, ptr noundef null, i32 %18, ptr noundef nonnull align 8 dereferenceable(24) %7, i64 %22, ptr noundef null, i1 noundef zeroext false, i1 noundef zeroext false, i1 noundef zeroext false, i32 noundef 0, ptr noundef null)
  ret ptr %15
}