; Function Attrs: mustprogress nounwind uwtable
define dso_local noundef ptr @_ZN5clang17CXXDestructorDecl18CreateDeserializedERNS_10ASTContextENS_12GlobalDeclIDE(ptr noundef nonnull align 8 dereferenceable(23096) %0, i64 %1) local_unnamed_addr #1 align 2 {
  %3 = alloca %"struct.clang::DeclarationNameInfo", align 8
  %4 = tail call noundef ptr @_ZN5clang4DeclnwEmRKNS_10ASTContextENS_12GlobalDeclIDEm(i64 noundef 184, ptr noundef nonnull align 8 dereferenceable(23096) %0, i64 %1, i64 noundef 0) #25
  call void @llvm.memset.p0.i64(ptr noundef nonnull align 8 dereferenceable(24) %3, i8 0, i64 24, i1 false)
  call void @_ZN5clang12FunctionDeclC2ENS_4Decl4KindERNS_10ASTContextEPNS_11DeclContextENS_14SourceLocationERKNS_19DeclarationNameInfoENS_8QualTypeEPNS_14TypeSourceInfoENS_12StorageClassEbbNS_17ConstexprSpecKindEPNS_4ExprE(ptr noundef nonnull align 8 dereferenceable(184) %4, i32 noundef 33, ptr noundef nonnull align 8 dereferenceable(23096) %0, ptr noundef null, i32 0, ptr noundef nonnull align 8 dereferenceable(24) %3, i64 0, ptr noundef null, i32 noundef 0, i1 noundef zeroext false, i1 noundef zeroext false, i32 noundef 0, ptr noundef null) #25
  store ptr getelementptr inbounds nuw inrange(-16, 104) (i8, ptr @_ZTVN5clang17CXXDestructorDeclE, i64 16), ptr %4, align 8
  %5 = getelementptr inbounds nuw i8, ptr %4, i64 168
  %6 = getelementptr inbounds nuw i8, ptr %4, i64 28
  call void @llvm.memset.p0.i64(ptr noundef nonnull align 8 dereferenceable(16) %5, i8 0, i64 16, i1 false)
  %7 = load i32, ptr %6, align 4
  %8 = and i32 %7, -513
  store i32 %8, ptr %6, align 4
  ret ptr %4
}